; Function Attrs: mustprogress uwtable
define noundef zeroext i1 @_ZNK8QuantLib6TARGET4Impl13isBusinessDayERKNS_4DateE(ptr noundef nonnull align 8 dereferenceable(104) %this, ptr noundef nonnull align 8 dereferenceable(8) %date) unnamed_addr #0 align 2 {
entry:
  %0 = load i64, ptr %date, align 8, !tbaa !23
  %rem.i = srem i64 %0, 7
  %conv.i = trunc nsw i64 %rem.i to i32
  %cmp.i = icmp eq i64 %rem.i, 0
  %cond.i = select i1 %cmp.i, i32 7, i32 %conv.i
  %call.i.i = tail call noundef i32 @_ZNK8QuantLib4Date4yearEv(ptr noundef nonnull align 8 dereferenceable(8) %date)
  %call2.i.i = tail call noundef i64 @_ZN8QuantLib4Date10yearOffsetEi(i32 noundef %call.i.i)
  %sub.i.i = sub nsw i64 %0, %call2.i.i
  %conv.i.i = trunc i64 %sub.i.i to i32
  %call2.i = tail call noundef i32 @_ZNK8QuantLib4Date5monthEv(ptr noundef nonnull align 8 dereferenceable(8) %date)
  %call3.i = tail call noundef i32 @_ZNK8QuantLib4Date4yearEv(ptr noundef nonnull align 8 dereferenceable(8) %date)
  %call4.i = tail call noundef zeroext i1 @_ZN8QuantLib4Date6isLeapEi(i32 noundef %call3.i)
  %call5.i = tail call noundef i32 @_ZN8QuantLib4Date11monthOffsetENS_5MonthEb(i32 noundef %call2.i, i1 noundef zeroext %call4.i)
  %sub.i = sub nsw i32 %conv.i.i, %call5.i
  %1 = load i64, ptr %date, align 8, !tbaa !23
  %call.i = tail call noundef i32 @_ZNK8QuantLib4Date4yearEv(ptr noundef nonnull align 8 dereferenceable(8) %date)
  %call2.i33 = tail call noundef i64 @_ZN8QuantLib4Date10yearOffsetEi(i32 noundef %call.i)
  %sub.i34 = sub nsw i64 %1, %call2.i33
  %conv.i35 = trunc i64 %sub.i34 to i32
  %call4 = tail call noundef i32 @_ZNK8QuantLib4Date5monthEv(ptr noundef nonnull align 8 dereferenceable(8) %date)
  %call5 = tail call noundef i32 @_ZNK8QuantLib4Date4yearEv(ptr noundef nonnull align 8 dereferenceable(8) %date)
  %call6 = tail call noundef i32 @_ZN8QuantLib8Calendar11WesternImpl12easterMondayEi(i32 noundef %call5)
  %call7 = tail call noundef zeroext i1 @_ZNK8QuantLib8Calendar11WesternImpl9isWeekendENS_7WeekdayE(ptr noundef nonnull align 8 dereferenceable(104) %this, i32 noundef %cond.i)
  br i1 %call7, label %cleanup, label %lor.lhs.false

lor.lhs.false:                                    ; preds = %entry
  %cmp = icmp eq i32 %sub.i, 1
  %cmp8 = icmp eq i32 %call4, 1
  %or.cond = and i1 %cmp, %cmp8
  br i1 %or.cond, label %cleanup, label %lor.lhs.false9

lor.lhs.false9:                                   ; preds = %lor.lhs.false
  %sub = add nsw i32 %call6, -3
  %cmp10 = icmp eq i32 %sub, %conv.i35
  %cmp12 = icmp sgt i32 %call5, 1999
  %cmp14 = icmp eq i32 %call6, %conv.i35
  %or.cond136 = or i1 %cmp14, %cmp10
  %or.cond32 = and i1 %cmp12, %or.cond136
  br i1 %or.cond32, label %cleanup, label %lor.lhs.false17

lor.lhs.false17:                                  ; preds = %lor.lhs.false9
  %cmp20 = icmp eq i32 %call4, 5
  %or.cond3 = and i1 %cmp, %cmp20
  %or.cond4 = and i1 %or.cond3, %cmp12
  br i1 %or.cond4, label %cleanup, label %lor.lhs.false23

lor.lhs.false23:                                  ; preds = %lor.lhs.false17
  %cmp24 = icmp eq i32 %sub.i, 25
  %cmp26 = icmp eq i32 %call4, 12
  %or.cond5 = and i1 %cmp24, %cmp26
  br i1 %or.cond5, label %cleanup, label %lor.lhs.false27

lor.lhs.false27:                                  ; preds = %lor.lhs.false23
  %cmp28 = icmp eq i32 %sub.i, 26
  %or.cond6 = and i1 %cmp28, %cmp26
  %or.cond7 = and i1 %or.cond6, %cmp12
  br i1 %or.cond7, label %cleanup, label %lor.lhs.false33

lor.lhs.false33:                                  ; preds = %lor.lhs.false27
  %cmp34 = icmp eq i32 %sub.i, 31
  %or.cond8 = and i1 %cmp34, %cmp26
  br i1 %or.cond8, label %land.lhs.true37, label %cleanup

land.lhs.true37:                                  ; preds = %lor.lhs.false33
  %switch.tableidx = add i32 %call5, -1998
  %2 = icmp ult i32 %switch.tableidx, 4
  br i1 %2, label %switch.lookup, label %cleanup

switch.lookup:                                    ; preds = %land.lhs.true37
  %switch.cast = trunc nuw i32 %switch.tableidx to i4
  %switch.downshift = lshr i4 4, %switch.cast
  %switch.masked = trunc i4 %switch.downshift to i1
  br label %cleanup

cleanup:                                          ; preds = %lor.lhs.false33, %land.lhs.true37, %switch.lookup, %entry, %lor.lhs.false, %lor.lhs.false9, %lor.lhs.false17, %lor.lhs.false23, %lor.lhs.false27
  %retval.0 = phi i1 [ false, %lor.lhs.false27 ], [ false, %lor.lhs.false23 ], [ false, %lor.lhs.false17 ], [ false, %lor.lhs.false9 ], [ false, %lor.lhs.false ], [ false, %entry ], [ %switch.masked, %switch.lookup ], [ true, %land.lhs.true37 ], [ true, %lor.lhs.false33 ]
  ret i1 %retval.0
}